target datalayout = "e-m:e-p270:32:32-p271:32:32-p272:64:64-i64:64-i128:128-f80:128-n8:16:32:64-S128"
target triple = "x86_64-pc-linux-gnu"

%"class.sat::literal" = type { i32 }
%"class.sat::bcd" = type { ptr, %class.ptr_vector, %class.svector, %class.svector, %class.svector, %class.svector, %class.ptr_vector, %class.svector.1, %class.svector.3, %class.svector.3 }
%class.svector = type { %class.vector.0 }
%class.vector.0 = type { ptr }
%class.ptr_vector = type { %class.vector }
%class.vector = type { ptr }
%class.svector.1 = type { %class.vector.2 }
%class.vector.2 = type { ptr }
%class.svector.3 = type { %class.vector.4 }
%class.vector.4 = type { ptr }
%"struct.sat::bcd::bclause" = type <{ ptr, %"class.sat::literal", [4 x i8] }>
%"class.sat::clause" = type { i32, i32, i32, %class.approx_set_tpl, i32, [0 x %"class.sat::literal"] }
%class.approx_set_tpl = type { i32 }

@.str.4 = private unnamed_addr constant [103 x i8] c"generated/home/dtcxzyw/WorkSpace/Projects/compilers/llvm-opt-benchmark/bench/z3/z3/src/sat/sat_bcd.cpp\00", align 1
@.str.5 = private unnamed_addr constant [46 x i8] c"Failed to verify: 0 == ~eval_clause(*bc.cls)\0A\00", align 1

; Function Attrs: mustprogress nounwind uwtable
define linkonce_odr hidden noundef nonnull align 8 dereferenceable(8) ptr @_ZNK6vectorImLb0EjEixEj(ptr noundef nonnull align 8 dereferenceable(8) %0, i32 noundef %1) #4 comdat align 2 {
  %3 = alloca ptr, align 8
  %4 = alloca i32, align 4
  store ptr %0, ptr %3, align 8, !tbaa !35
  store i32 %1, ptr %4, align 4, !tbaa !51
  %5 = load ptr, ptr %3, align 8
  %6 = getelementptr inbounds nuw %class.vector.2, ptr %5, i32 0, i32 0
  %7 = load ptr, ptr %6, align 8, !tbaa !251
  %8 = load i32, ptr %4, align 4, !tbaa !51
  %9 = zext i32 %8 to i64
  %10 = getelementptr inbounds nuw i64, ptr %7, i64 %9
  ret ptr %10
}

; Function Attrs: mustprogress nounwind uwtable
define linkonce_odr hidden noundef i32 @_ZNK3sat7literal3varEv(ptr noundef nonnull align 4 dereferenceable(4) %0) #4 comdat align 2 {
  %2 = alloca ptr, align 8
  store ptr %0, ptr %2, align 8, !tbaa !79
  %3 = load ptr, ptr %2, align 8
  %4 = getelementptr inbounds nuw %"class.sat::literal", ptr %3, i32 0, i32 0
  %5 = load i32, ptr %4, align 4, !tbaa !226
  %6 = lshr i32 %5, 1
  ret i32 %6
}

; Function Attrs: mustprogress nounwind uwtable
define linkonce_odr hidden noundef zeroext i1 @_ZNK3sat7literal4signEv(ptr noundef nonnull align 4 dereferenceable(4) %0) #4 comdat align 2 {
  %2 = alloca ptr, align 8
  store ptr %0, ptr %2, align 8, !tbaa !79
  %3 = load ptr, ptr %2, align 8
  %4 = getelementptr inbounds nuw %"class.sat::literal", ptr %3, i32 0, i32 0
  %5 = load i32, ptr %4, align 4, !tbaa !226
  %6 = zext i32 %5 to i64
  %7 = and i64 %6, 1
  %8 = icmp ne i64 %7, 0
  ret i1 %8
}

; Function Attrs: mustprogress nounwind uwtable
define linkonce_odr hidden noundef ptr @_ZNK3sat6clause3endEv(ptr noundef nonnull align 4 dereferenceable(20) %0) #4 comdat align 2 {
  %2 = alloca ptr, align 8
  store ptr %0, ptr %2, align 8, !tbaa !48
  %3 = load ptr, ptr %2, align 8
  %4 = getelementptr inbounds nuw %"class.sat::clause", ptr %3, i32 0, i32 5
  %5 = getelementptr inbounds [0 x %"class.sat::literal"], ptr %4, i64 0, i64 0
  %6 = getelementptr inbounds nuw %"class.sat::clause", ptr %3, i32 0, i32 1
  %7 = load i32, ptr %6, align 4, !tbaa !70
  %8 = zext i32 %7 to i64
  %9 = getelementptr inbounds nuw %"class.sat::literal", ptr %5, i64 %8
  ret ptr %9
}

; Function Attrs: mustprogress nounwind uwtable
define linkonce_odr hidden noundef ptr @_ZNK3sat6clause5beginEv(ptr noundef nonnull align 4 dereferenceable(20) %0) #4 comdat align 2 {
  %2 = alloca ptr, align 8
  store ptr %0, ptr %2, align 8, !tbaa !48
  %3 = load ptr, ptr %2, align 8
  %4 = getelementptr inbounds nuw %"class.sat::clause", ptr %3, i32 0, i32 5
  %5 = getelementptr inbounds [0 x %"class.sat::literal"], ptr %4, i64 0, i64 0
  ret ptr %5
}

; Function Attrs: mustprogress nounwind uwtable
define linkonce_odr hidden noundef i32 @_ZNK6vectorIN3sat3bcd7bclauseELb0EjE4sizeEv(ptr noundef nonnull align 8 dereferenceable(8) %0) #4 comdat align 2 {
  %2 = alloca i32, align 4
  %3 = alloca ptr, align 8
  store ptr %0, ptr %3, align 8, !tbaa !39
  %4 = load ptr, ptr %3, align 8
  %5 = getelementptr inbounds nuw %class.vector.0, ptr %4, i32 0, i32 0
  %6 = load ptr, ptr %5, align 8, !tbaa !69
  %7 = icmp eq ptr %6, null
  br i1 %7, label %8, label %9

8:                                                ; preds = %1
  store i32 0, ptr %2, align 4
  br label %14

9:                                                ; preds = %1
  %10 = getelementptr inbounds nuw %class.vector.0, ptr %4, i32 0, i32 0
  %11 = load ptr, ptr %10, align 8, !tbaa !69
  %12 = getelementptr inbounds i32, ptr %11, i64 -1
  %13 = load i32, ptr %12, align 4, !tbaa !51
  store i32 %13, ptr %2, align 4
  br label %14

14:                                               ; preds = %9, %8
  %15 = load i32, ptr %2, align 4
  ret i32 %15
}

; Function Attrs: mustprogress uwtable
define hidden noundef i64 @_ZNK3sat3bcd11eval_clauseERKNS_6clauseE(ptr noundef nonnull align 8 dereferenceable(80) %0, ptr noundef nonnull align 4 dereferenceable(20) %1) #5 align 2 {
  %3 = alloca ptr, align 8
  %4 = alloca ptr, align 8
  %5 = alloca i64, align 8
  %6 = alloca ptr, align 8
  %7 = alloca ptr, align 8
  %8 = alloca ptr, align 8
  %9 = alloca %"class.sat::literal", align 4
  store ptr %0, ptr %3, align 8, !tbaa !3
  store ptr %1, ptr %4, align 8, !tbaa !48
  %10 = load ptr, ptr %3, align 8
  call void @llvm.lifetime.start.p0(i64 8, ptr %5) #3
  store i64 0, ptr %5, align 8, !tbaa !58
  call void @llvm.lifetime.start.p0(i64 8, ptr %6) #3
  %11 = load ptr, ptr %4, align 8, !tbaa !48
  store ptr %11, ptr %6, align 8, !tbaa !48
  call void @llvm.lifetime.start.p0(i64 8, ptr %7) #3
  %12 = load ptr, ptr %6, align 8, !tbaa !48
  %13 = call noundef ptr @_ZNK3sat6clause5beginEv(ptr noundef nonnull align 4 dereferenceable(20) %12)
  store ptr %13, ptr %7, align 8, !tbaa !79
  call void @llvm.lifetime.start.p0(i64 8, ptr %8) #3
  %14 = load ptr, ptr %6, align 8, !tbaa !48
  %15 = call noundef ptr @_ZNK3sat6clause3endEv(ptr noundef nonnull align 4 dereferenceable(20) %14)
  store ptr %15, ptr %8, align 8, !tbaa !79
  br label %16

16:                                               ; preds = %39, %2
  %17 = load ptr, ptr %7, align 8, !tbaa !79
  %18 = load ptr, ptr %8, align 8, !tbaa !79
  %19 = icmp ne ptr %17, %18
  br i1 %19, label %21, label %20

20:                                               ; preds = %16
  call void @llvm.lifetime.end.p0(i64 8, ptr %8) #3
  call void @llvm.lifetime.end.p0(i64 8, ptr %7) #3
  call void @llvm.lifetime.end.p0(i64 8, ptr %6) #3
  br label %42

21:                                               ; preds = %16
  call void @llvm.lifetime.start.p0(i64 4, ptr %9) #3
  %22 = load ptr, ptr %7, align 8, !tbaa !79
  call void @llvm.memcpy.p0.p0.i64(ptr align 4 %9, ptr align 4 %22, i64 4, i1 false), !tbaa.struct !50
  %23 = call noundef zeroext i1 @_ZNK3sat7literal4signEv(ptr noundef nonnull align 4 dereferenceable(4) %9)
  br i1 %23, label %24, label %30

24:                                               ; preds = %21
  %25 = getelementptr inbounds nuw %"class.sat::bcd", ptr %10, i32 0, i32 7
  %26 = call noundef i32 @_ZNK3sat7literal3varEv(ptr noundef nonnull align 4 dereferenceable(4) %9)
  %27 = call noundef nonnull align 8 dereferenceable(8) ptr @_ZNK6vectorImLb0EjEixEj(ptr noundef nonnull align 8 dereferenceable(8) %25, i32 noundef %26)
  %28 = load i64, ptr %27, align 8, !tbaa !58
  %29 = xor i64 %28, -1
  br label %35

30:                                               ; preds = %21
  %31 = getelementptr inbounds nuw %"class.sat::bcd", ptr %10, i32 0, i32 7
  %32 = call noundef i32 @_ZNK3sat7literal3varEv(ptr noundef nonnull align 4 dereferenceable(4) %9)
  %33 = call noundef nonnull align 8 dereferenceable(8) ptr @_ZNK6vectorImLb0EjEixEj(ptr noundef nonnull align 8 dereferenceable(8) %31, i32 noundef %32)
  %34 = load i64, ptr %33, align 8, !tbaa !58
  br label %35

35:                                               ; preds = %30, %24
  %36 = phi i64 [ %29, %24 ], [ %34, %30 ]
  %37 = load i64, ptr %5, align 8, !tbaa !58
  %38 = or i64 %37, %36
  store i64 %38, ptr %5, align 8, !tbaa !58
  call void @llvm.lifetime.end.p0(i64 4, ptr %9) #3
  br label %39

39:                                               ; preds = %35
  %40 = load ptr, ptr %7, align 8, !tbaa !79
  %41 = getelementptr inbounds nuw %"class.sat::literal", ptr %40, i32 1
  store ptr %41, ptr %7, align 8, !tbaa !79
  br label %16

42:                                               ; preds = %20
  %43 = load i64, ptr %5, align 8, !tbaa !58
  call void @llvm.lifetime.end.p0(i64 8, ptr %5) #3
  ret i64 %43
}

; Function Attrs: mustprogress nounwind uwtable
define linkonce_odr hidden noundef ptr @_ZN6vectorIN3sat3bcd7bclauseELb0EjE3endEv(ptr noundef nonnull align 8 dereferenceable(8) %0) #4 comdat align 2 {
  %2 = alloca ptr, align 8
  store ptr %0, ptr %2, align 8, !tbaa !39
  %3 = load ptr, ptr %2, align 8
  %4 = getelementptr inbounds nuw %class.vector.0, ptr %3, i32 0, i32 0
  %5 = load ptr, ptr %4, align 8, !tbaa !69
  %6 = call noundef i32 @_ZNK6vectorIN3sat3bcd7bclauseELb0EjE4sizeEv(ptr noundef nonnull align 8 dereferenceable(8) %3)
  %7 = zext i32 %6 to i64
  %8 = getelementptr inbounds nuw %"struct.sat::bcd::bclause", ptr %5, i64 %7
  ret ptr %8
}

; Function Attrs: mustprogress nounwind uwtable
define linkonce_odr hidden noundef ptr @_ZN6vectorIN3sat3bcd7bclauseELb0EjE5beginEv(ptr noundef nonnull align 8 dereferenceable(8) %0) #4 comdat align 2 {
  %2 = alloca ptr, align 8
  store ptr %0, ptr %2, align 8, !tbaa !39
  %3 = load ptr, ptr %2, align 8
  %4 = getelementptr inbounds nuw %class.vector.0, ptr %3, i32 0, i32 0
  %5 = load ptr, ptr %4, align 8, !tbaa !69
  ret ptr %5
}

; Function Attrs: mustprogress uwtable
define hidden void @_ZN3sat3bcd12verify_sweepEv(ptr noundef nonnull align 8 dereferenceable(80) %0) #5 align 2 {
  %2 = alloca ptr, align 8
  %3 = alloca ptr, align 8
  %4 = alloca ptr, align 8
  %5 = alloca ptr, align 8
  %6 = alloca ptr, align 8
  store ptr %0, ptr %2, align 8, !tbaa !3
  %7 = load ptr, ptr %2, align 8
  call void @llvm.lifetime.start.p0(i64 8, ptr %3) #3
  %8 = getelementptr inbounds nuw %"class.sat::bcd", ptr %7, i32 0, i32 2
  store ptr %8, ptr %3, align 8, !tbaa !12
  call void @llvm.lifetime.start.p0(i64 8, ptr %4) #3
  %9 = load ptr, ptr %3, align 8, !tbaa !12
  %10 = call noundef ptr @_ZN6vectorIN3sat3bcd7bclauseELb0EjE5beginEv(ptr noundef nonnull align 8 dereferenceable(8) %9)
  store ptr %10, ptr %4, align 8, !tbaa !53
  call void @llvm.lifetime.start.p0(i64 8, ptr %5) #3
  %11 = load ptr, ptr %3, align 8, !tbaa !12
  %12 = call noundef ptr @_ZN6vectorIN3sat3bcd7bclauseELb0EjE3endEv(ptr noundef nonnull align 8 dereferenceable(8) %11)
  store ptr %12, ptr %5, align 8, !tbaa !53
  br label %13

13:                                               ; preds = %28, %1
  %14 = load ptr, ptr %4, align 8, !tbaa !53
  %15 = load ptr, ptr %5, align 8, !tbaa !53
  %16 = icmp ne ptr %14, %15
  br i1 %16, label %18, label %17

17:                                               ; preds = %13
  call void @llvm.lifetime.end.p0(i64 8, ptr %5) #3
  call void @llvm.lifetime.end.p0(i64 8, ptr %4) #3
  call void @llvm.lifetime.end.p0(i64 8, ptr %3) #3
  br label %31

18:                                               ; preds = %13
  call void @llvm.lifetime.start.p0(i64 8, ptr %6) #3
  %19 = load ptr, ptr %4, align 8, !tbaa !53
  store ptr %19, ptr %6, align 8, !tbaa !53
  %20 = load ptr, ptr %6, align 8, !tbaa !53
  %21 = getelementptr inbounds nuw %"struct.sat::bcd::bclause", ptr %20, i32 0, i32 0
  %22 = load ptr, ptr %21, align 8, !tbaa !55
  %23 = call noundef i64 @_ZNK3sat3bcd11eval_clauseERKNS_6clauseE(ptr noundef nonnull align 8 dereferenceable(80) %7, ptr noundef nonnull align 4 dereferenceable(20) %22)
  %24 = xor i64 %23, -1
  %25 = icmp eq i64 0, %24
  br i1 %25, label %27, label %26

26:                                               ; preds = %18
  call void @_Z26notify_assertion_violationPKciS0_(ptr noundef @.str.4, i32 noundef 313, ptr noundef @.str.5)
  call void @_Z18invoke_exit_actionj(i32 noundef 114)
  br label %27

27:                                               ; preds = %26, %18
  call void @llvm.lifetime.end.p0(i64 8, ptr %6) #3
  br label %28

28:                                               ; preds = %27
  %29 = load ptr, ptr %4, align 8, !tbaa !53
  %30 = getelementptr inbounds nuw %"struct.sat::bcd::bclause", ptr %29, i32 1
  store ptr %30, ptr %4, align 8, !tbaa !53
  br label %13

31:                                               ; preds = %17
  ret void
}