; Function Attrs: mustprogress uwtable
define hidden void @_ZN3sat3bcd12verify_sweepEv(ptr noundef nonnull readonly align 8 captures(none) dereferenceable(80) %0) local_unnamed_addr #5 align 2 {
  %2 = getelementptr inbounds nuw i8, ptr %0, i64 16
  %3 = load ptr, ptr %2, align 8, !tbaa !26
  %4 = icmp eq ptr %3, null
  br i1 %4, label %._crit_edge, label %_ZN6vectorIN3sat3bcd7bclauseELb0EjE3endEv.exit

_ZN6vectorIN3sat3bcd7bclauseELb0EjE3endEv.exit:   ; preds = %1
  %5 = getelementptr inbounds i8, ptr %3, i64 -4
  %6 = load i32, ptr %5, align 4, !tbaa !24
  %7 = zext i32 %6 to i64
  %8 = getelementptr inbounds nuw %"struct.sat::bcd::bclause", ptr %3, i64 %7
  %.not9 = icmp eq i32 %6, 0
  br i1 %.not9, label %._crit_edge, label %.lr.ph

.lr.ph:                                           ; preds = %_ZN6vectorIN3sat3bcd7bclauseELb0EjE3endEv.exit
  %9 = getelementptr inbounds nuw i8, ptr %0, i64 56
  br label %10

._crit_edge:                                      ; preds = %29, %1, %_ZN6vectorIN3sat3bcd7bclauseELb0EjE3endEv.exit
  ret void

10:                                               ; preds = %.lr.ph, %29
  %.010 = phi ptr [ %3, %.lr.ph ], [ %30, %29 ]
  %11 = load ptr, ptr %.010, align 8, !tbaa !49
  %12 = getelementptr inbounds nuw i8, ptr %11, i64 4
  %13 = load i32, ptr %12, align 4, !tbaa !43
  %14 = zext i32 %13 to i64
  %.idx.i = shl nuw nsw i64 %14, 2
  %15 = getelementptr inbounds nuw i8, ptr %11, i64 %.idx.i
  %.ptr16.i = getelementptr inbounds nuw i8, ptr %15, i64 20
  %.not13.i = icmp eq i32 %13, 0
  br i1 %.not13.i, label %_ZNK3sat3bcd11eval_clauseERKNS_6clauseE.exit.thread, label %.lr.ph.i

.lr.ph.i:                                         ; preds = %10
  %.ptr.i = getelementptr inbounds nuw i8, ptr %11, i64 20
  %16 = load ptr, ptr %9, align 8
  br label %17

17:                                               ; preds = %17, %.lr.ph.i
  %.015.i = phi i64 [ 0, %.lr.ph.i ], [ %26, %17 ]
  %.0914.i = phi ptr [ %.ptr.i, %.lr.ph.i ], [ %27, %17 ]
  %18 = load i32, ptr %.0914.i, align 4, !tbaa !24
  %19 = lshr i32 %18, 1
  %20 = zext nneg i32 %19 to i64
  %21 = getelementptr inbounds nuw i64, ptr %16, i64 %20
  %22 = load i64, ptr %21, align 8, !tbaa !76
  %23 = and i32 %18, 1
  %sext.i = sub nsw i32 0, %23
  %24 = sext i32 %sext.i to i64
  %25 = xor i64 %22, %24
  %26 = or i64 %25, %.015.i
  %27 = getelementptr inbounds nuw i8, ptr %.0914.i, i64 4
  %.not.i = icmp eq ptr %27, %.ptr16.i
  br i1 %.not.i, label %_ZNK3sat3bcd11eval_clauseERKNS_6clauseE.exit, label %17

_ZNK3sat3bcd11eval_clauseERKNS_6clauseE.exit:     ; preds = %17
  %28 = icmp eq i64 %26, -1
  br i1 %28, label %29, label %_ZNK3sat3bcd11eval_clauseERKNS_6clauseE.exit.thread

_ZNK3sat3bcd11eval_clauseERKNS_6clauseE.exit.thread: ; preds = %10, %_ZNK3sat3bcd11eval_clauseERKNS_6clauseE.exit
  tail call void @_Z26notify_assertion_violationPKciS0_(ptr noundef nonnull @.str.4, i32 noundef 313, ptr noundef nonnull @.str.5)
  tail call void @_Z18invoke_exit_actionj(i32 noundef 114)
  br label %29

29:                                               ; preds = %_ZNK3sat3bcd11eval_clauseERKNS_6clauseE.exit.thread, %_ZNK3sat3bcd11eval_clauseERKNS_6clauseE.exit
  %30 = getelementptr inbounds nuw i8, ptr %.010, i64 16
  %.not = icmp eq ptr %30, %8
  br i1 %.not, label %._crit_edge, label %10
}